	.file	"file_input.c"
	.text
	.section	.rodata.str1.1,"aMS",@progbits,1
.LC0:
	.string	"r"
.LC1:
	.string	"Unable to open file '%s'\n"
.LC2:
	.string	"%d"
.LC3:
	.string	"Reading file '%s' error\n"
	.section	.rodata.str1.8,"aMS",@progbits,1
	.align 8
.LC4:
	.string	"The num of elems in arr must be from 1 to %d\n"
	.text
	.p2align 4
	.globl	file_input
	.type	file_input, @function
file_input:
.LFB23:
	.cfi_startproc
	endbr64
	pushq	%r15
	.cfi_def_cfa_offset 16
	.cfi_offset 15, -16
	movq	%rsi, %r15
	leaq	.LC0(%rip), %rsi
	pushq	%r14
	.cfi_def_cfa_offset 24
	.cfi_offset 14, -24
	pushq	%r13
	.cfi_def_cfa_offset 32
	.cfi_offset 13, -32
	movq	%rdi, %r13
	movq	%r15, %rdi
	pushq	%r12
	.cfi_def_cfa_offset 40
	.cfi_offset 12, -40
	pushq	%rbp
	.cfi_def_cfa_offset 48
	.cfi_offset 6, -48
	pushq	%rbx
	.cfi_def_cfa_offset 56
	.cfi_offset 3, -56
	subq	$8, %rsp
	.cfi_def_cfa_offset 64
	call	fopen@PLT
	testq	%rax, %rax
	je	.L14
	leaq	.LC2(%rip), %r14
	movq	%rax, %r12
	movq	%rax, %rdi
	movq	%r13, %rdx
	xorl	%eax, %eax
	movq	%r14, %rsi
	call	__isoc99_fscanf@PLT
	testl	%eax, %eax
	jle	.L12
	movl	0(%r13), %eax
	movl	SIZEMAX(%rip), %edx
	testl	%eax, %eax
	jle	.L5
	leaq	ARRAY_A(%rip), %rbx
	xorl	%ebp, %ebp
	cmpl	%edx, %eax
	jle	.L8
.L5:
	leaq	.LC4(%rip), %rsi
	movl	$1, %edi
	xorl	%eax, %eax
	call	__printf_chk@PLT
	movq	%r12, %rdi
	call	fclose@PLT
	movl	$1, %eax
.L1:
	addq	$8, %rsp
	.cfi_remember_state
	.cfi_def_cfa_offset 56
	popq	%rbx
	.cfi_def_cfa_offset 48
	popq	%rbp
	.cfi_def_cfa_offset 40
	popq	%r12
	.cfi_def_cfa_offset 32
	popq	%r13
	.cfi_def_cfa_offset 24
	popq	%r14
	.cfi_def_cfa_offset 16
	popq	%r15
	.cfi_def_cfa_offset 8
	ret
	.p2align 4,,10
	.p2align 3
.L7:
	.cfi_restore_state
	addl	$1, %ebp
	addq	$4, %rbx
	cmpl	%ebp, 0(%r13)
	jle	.L15
.L8:
	xorl	%eax, %eax
	movq	%rbx, %rdx
	movq	%r14, %rsi
	movq	%r12, %rdi
	call	__isoc99_fscanf@PLT
	testl	%eax, %eax
	jg	.L7
.L12:
	movq	%r15, %rdx
	leaq	.LC3(%rip), %rsi
	movl	$1, %edi
	xorl	%eax, %eax
	call	__printf_chk@PLT
	movq	%r12, %rdi
	call	fclose@PLT
	addq	$8, %rsp
	.cfi_remember_state
	.cfi_def_cfa_offset 56
	movl	$1, %eax
	popq	%rbx
	.cfi_def_cfa_offset 48
	popq	%rbp
	.cfi_def_cfa_offset 40
	popq	%r12
	.cfi_def_cfa_offset 32
	popq	%r13
	.cfi_def_cfa_offset 24
	popq	%r14
	.cfi_def_cfa_offset 16
	popq	%r15
	.cfi_def_cfa_offset 8
	ret
	.p2align 4,,10
	.p2align 3
.L15:
	.cfi_restore_state
	movq	%r12, %rdi
	call	fclose@PLT
	addq	$8, %rsp
	.cfi_remember_state
	.cfi_def_cfa_offset 56
	xorl	%eax, %eax
	popq	%rbx
	.cfi_def_cfa_offset 48
	popq	%rbp
	.cfi_def_cfa_offset 40
	popq	%r12
	.cfi_def_cfa_offset 32
	popq	%r13
	.cfi_def_cfa_offset 24
	popq	%r14
	.cfi_def_cfa_offset 16
	popq	%r15
	.cfi_def_cfa_offset 8
	ret
.L14:
	.cfi_restore_state
	movq	%r15, %rdx
	leaq	.LC1(%rip), %rsi
	movl	$1, %edi
	xorl	%eax, %eax
	call	__printf_chk@PLT
	movl	$1, %eax
	jmp	.L1
	.cfi_endproc
.LFE23:
	.size	file_input, .-file_input
	.ident	"GCC: (Ubuntu 11.2.0-19ubuntu1) 11.2.0"
	.section	.note.GNU-stack,"",@progbits
	.section	.note.gnu.property,"a"
	.align 8
	.long	1f - 0f
	.long	4f - 1f
	.long	5
0:
	.string	"GNU"
1:
	.align 8
	.long	0xc0000002
	.long	3f - 2f
2:
	.long	0x3
3:
	.align 8
4:
